ARM GAS  /var/folders/kb/jp48nf6n0vs1vb3q737nlq0w0000gn/T//cczeehKx.s 			page 1


   1              		.cpu cortex-m0
   2              		.arch armv6s-m
   3              		.fpu softvfp
   4              		.eabi_attribute 20, 1
   5              		.eabi_attribute 21, 1
   6              		.eabi_attribute 23, 3
   7              		.eabi_attribute 24, 1
   8              		.eabi_attribute 25, 1
   9              		.eabi_attribute 26, 1
  10              		.eabi_attribute 30, 1
  11              		.eabi_attribute 34, 0
  12              		.eabi_attribute 18, 4
  13              		.file	"main.c"
  14              		.text
  15              	.Ltext0:
  16              		.cfi_sections	.debug_frame
  17              		.file 1 "Src/main.c"
  18              		.section	.text._Error_Handler,"ax",%progbits
  19              		.align	1
  20              		.global	_Error_Handler
  21              		.syntax unified
  22              		.code	16
  23              		.thumb_func
  25              	_Error_Handler:
  26              	.LFB42:
   1:Src/main.c    **** /**
   2:Src/main.c    ****   *
   3:Src/main.c    ****   * Brandon Mouser
   4:Src/main.c    ****   * U0962682
   5:Src/main.c    ****   *
   6:Src/main.c    ****   ******************************************************************************
   7:Src/main.c    ****   * File Name          : main.c
   8:Src/main.c    ****   * Description        : Main program body
   9:Src/main.c    ****   ******************************************************************************
  10:Src/main.c    ****   ** This notice applies to any and all portions of this file
  11:Src/main.c    ****   * that are not between comment pairs USER CODE BEGIN and
  12:Src/main.c    ****   * USER CODE END. Other portions of this file, whether
  13:Src/main.c    ****   * inserted by the user or by software development tools
  14:Src/main.c    ****   * are owned by their respective copyright owners.
  15:Src/main.c    ****   *
  16:Src/main.c    ****   * COPYRIGHT(c) 2018 STMicroelectronics
  17:Src/main.c    ****   *
  18:Src/main.c    ****   * Redistribution and use in source and binary forms, with or without modification,
  19:Src/main.c    ****   * are permitted provided that the following conditions are met:
  20:Src/main.c    ****   *   1. Redistributions of source code must retain the above copyright notice,
  21:Src/main.c    ****   *      this list of conditions and the following disclaimer.
  22:Src/main.c    ****   *   2. Redistributions in binary form must reproduce the above copyright notice,
  23:Src/main.c    ****   *      this list of conditions and the following disclaimer in the documentation
  24:Src/main.c    ****   *      and/or other materials provided with the distribution.
  25:Src/main.c    ****   *   3. Neither the name of STMicroelectronics nor the names of its contributors
  26:Src/main.c    ****   *      may be used to endorse or promote products derived from this software
  27:Src/main.c    ****   *      without specific prior written permission.
  28:Src/main.c    ****   *
  29:Src/main.c    ****   * THIS SOFTWARE IS PROVIDED BY THE COPYRIGHT HOLDERS AND CONTRIBUTORS "AS IS"
  30:Src/main.c    ****   * AND ANY EXPRESS OR IMPLIED WARRANTIES, INCLUDING, BUT NOT LIMITED TO, THE
  31:Src/main.c    ****   * IMPLIED WARRANTIES OF MERCHANTABILITY AND FITNESS FOR A PARTICULAR PURPOSE ARE
  32:Src/main.c    ****   * DISCLAIMED. IN NO EVENT SHALL THE COPYRIGHT HOLDER OR CONTRIBUTORS BE LIABLE
ARM GAS  /var/folders/kb/jp48nf6n0vs1vb3q737nlq0w0000gn/T//cczeehKx.s 			page 2


  33:Src/main.c    ****   * FOR ANY DIRECT, INDIRECT, INCIDENTAL, SPECIAL, EXEMPLARY, OR CONSEQUENTIAL
  34:Src/main.c    ****   * DAMAGES (INCLUDING, BUT NOT LIMITED TO, PROCUREMENT OF SUBSTITUTE GOODS OR
  35:Src/main.c    ****   * SERVICES; LOSS OF USE, DATA, OR PROFITS; OR BUSINESS INTERRUPTION) HOWEVER
  36:Src/main.c    ****   * CAUSED AND ON ANY THEORY OF LIABILITY, WHETHER IN CONTRACT, STRICT LIABILITY,
  37:Src/main.c    ****   * OR TORT (INCLUDING NEGLIGENCE OR OTHERWISE) ARISING IN ANY WAY OUT OF THE USE
  38:Src/main.c    ****   * OF THIS SOFTWARE, EVEN IF ADVISED OF THE POSSIBILITY OF SUCH DAMAGE.
  39:Src/main.c    ****   *
  40:Src/main.c    ****   ******************************************************************************
  41:Src/main.c    ****   */
  42:Src/main.c    **** 
  43:Src/main.c    **** /* Includes ------------------------------------------------------------------*/
  44:Src/main.c    **** #include "main.h"
  45:Src/main.c    **** #include "stm32f0xx_hal.h"
  46:Src/main.c    **** void _Error_Handler(char * file, int line);
  47:Src/main.c    **** 
  48:Src/main.c    **** /* USER CODE BEGIN Includes */
  49:Src/main.c    **** 
  50:Src/main.c    **** /* USER CODE END Includes */
  51:Src/main.c    **** 
  52:Src/main.c    **** /* Private variables ---------------------------------------------------------*/
  53:Src/main.c    **** 
  54:Src/main.c    **** /* USER CODE BEGIN PV */
  55:Src/main.c    **** /* Private variables ---------------------------------------------------------*/
  56:Src/main.c    **** 
  57:Src/main.c    **** /* USER CODE END PV */
  58:Src/main.c    **** 
  59:Src/main.c    **** /* Private function prototypes -----------------------------------------------*/
  60:Src/main.c    **** void SystemClock_Config(void);
  61:Src/main.c    **** 
  62:Src/main.c    **** /* USER CODE BEGIN PFP */
  63:Src/main.c    **** /* Private function prototypes -----------------------------------------------*/
  64:Src/main.c    **** 
  65:Src/main.c    **** /* USER CODE END PFP */
  66:Src/main.c    **** 
  67:Src/main.c    **** /* USER CODE BEGIN 0 */
  68:Src/main.c    **** 
  69:Src/main.c    **** /* USER CODE END 0 */
  70:Src/main.c    **** 
  71:Src/main.c    **** 
  72:Src/main.c    **** int main(void)
  73:Src/main.c    **** {
  74:Src/main.c    ****   SystemClock_Config();
  75:Src/main.c    **** 
  76:Src/main.c    ****   volatile blue_count;
  77:Src/main.c    **** 
  78:Src/main.c    ****   RCC->AHBENR |= RCC_AHBENR_GPIOAEN;
  79:Src/main.c    ****   RCC->AHBENR |= RCC_AHBENR_GPIOCEN;
  80:Src/main.c    **** 
  81:Src/main.c    ****   GPIOC -> MODER |= (1 << 12); // PIN 6 (RED)
  82:Src/main.c    **** 	GPIOC -> MODER |= (1 << 14); // PIN 7 (BLLUE)
  83:Src/main.c    **** 	GPIOC -> MODER |= (1 << 16); // PIN 8 (ORANGE)
  84:Src/main.c    **** 	GPIOC -> MODER |= (1 << 18); // PIN 9 (GREEN)
  85:Src/main.c    **** 
  86:Src/main.c    ****   GPIOC -> OTYPER &= ~(1 << 6);
  87:Src/main.c    **** 	GPIOC -> OTYPER &= ~(1 << 7);
  88:Src/main.c    **** 	GPIOC -> OTYPER &= ~(1 << 8);
  89:Src/main.c    **** 	GPIOC -> OTYPER &= ~(1 << 9);
ARM GAS  /var/folders/kb/jp48nf6n0vs1vb3q737nlq0w0000gn/T//cczeehKx.s 			page 3


  90:Src/main.c    **** 
  91:Src/main.c    **** 	GPIOC -> OSPEEDR &= ~(1 << 12);
  92:Src/main.c    **** 	GPIOC -> OSPEEDR &= ~(1 << 14);
  93:Src/main.c    **** 	GPIOC -> OSPEEDR &= ~(1 << 16);
  94:Src/main.c    **** 	GPIOC -> OSPEEDR &= ~(1 << 18);
  95:Src/main.c    **** 
  96:Src/main.c    **** 	GPIOC -> PUPDR &= ~((1 << 12)|(1 << 13));
  97:Src/main.c    **** 	GPIOC -> PUPDR &= ~((1 << 14)|(1 << 15));
  98:Src/main.c    **** 	GPIOC -> PUPDR &= ~((1 << 16)|(1 << 17));
  99:Src/main.c    **** 	GPIOC -> PUPDR &= ~((1 << 18)|(1 << 19));
 100:Src/main.c    **** 
 101:Src/main.c    ****   HAL_GPIO_WritePin(GPIOC, GPIO_PIN_9, GPIO_PIN_SET); // Start PC9 high
 102:Src/main.c    **** 
 103:Src/main.c    ****   while (1) {
 104:Src/main.c    ****     HAL_Delay(500); // Delay 500ms
 105:Src/main.c    ****     GPIOC -> ODR ^= GPIO_ODR_6;    
 106:Src/main.c    **** 
 107:Src/main.c    ****   }
 108:Src/main.c    ****   
 109:Src/main.c    **** }
 110:Src/main.c    **** 
 111:Src/main.c    **** /** System Clock Configuration
 112:Src/main.c    **** */
 113:Src/main.c    **** void SystemClock_Config(void)
 114:Src/main.c    **** {
 115:Src/main.c    **** 
 116:Src/main.c    ****   RCC_OscInitTypeDef RCC_OscInitStruct;
 117:Src/main.c    ****   RCC_ClkInitTypeDef RCC_ClkInitStruct;
 118:Src/main.c    **** 
 119:Src/main.c    ****     /**Initializes the CPU, AHB and APB busses clocks
 120:Src/main.c    ****     */
 121:Src/main.c    ****   RCC_OscInitStruct.OscillatorType = RCC_OSCILLATORTYPE_HSI;
 122:Src/main.c    ****   RCC_OscInitStruct.HSIState = RCC_HSI_ON;
 123:Src/main.c    ****   RCC_OscInitStruct.HSICalibrationValue = 16;
 124:Src/main.c    ****   RCC_OscInitStruct.PLL.PLLState = RCC_PLL_NONE;
 125:Src/main.c    ****   if (HAL_RCC_OscConfig(&RCC_OscInitStruct) != HAL_OK)
 126:Src/main.c    ****   {
 127:Src/main.c    ****     _Error_Handler(__FILE__, __LINE__);
 128:Src/main.c    ****   }
 129:Src/main.c    **** 
 130:Src/main.c    ****     /**Initializes the CPU, AHB and APB busses clocks
 131:Src/main.c    ****     */
 132:Src/main.c    ****   RCC_ClkInitStruct.ClockType = RCC_CLOCKTYPE_HCLK|RCC_CLOCKTYPE_SYSCLK
 133:Src/main.c    ****                               |RCC_CLOCKTYPE_PCLK1;
 134:Src/main.c    ****   RCC_ClkInitStruct.SYSCLKSource = RCC_SYSCLKSOURCE_HSI;
 135:Src/main.c    ****   RCC_ClkInitStruct.AHBCLKDivider = RCC_SYSCLK_DIV1;
 136:Src/main.c    ****   RCC_ClkInitStruct.APB1CLKDivider = RCC_HCLK_DIV1;
 137:Src/main.c    **** 
 138:Src/main.c    ****   if (HAL_RCC_ClockConfig(&RCC_ClkInitStruct, FLASH_LATENCY_0) != HAL_OK)
 139:Src/main.c    ****   {
 140:Src/main.c    ****     _Error_Handler(__FILE__, __LINE__);
 141:Src/main.c    ****   }
 142:Src/main.c    **** 
 143:Src/main.c    ****     /**Configure the Systick interrupt time
 144:Src/main.c    ****     */
 145:Src/main.c    ****   HAL_SYSTICK_Config(HAL_RCC_GetHCLKFreq()/1000);
 146:Src/main.c    **** 
ARM GAS  /var/folders/kb/jp48nf6n0vs1vb3q737nlq0w0000gn/T//cczeehKx.s 			page 4


 147:Src/main.c    ****     /**Configure the Systick
 148:Src/main.c    ****     */
 149:Src/main.c    ****   HAL_SYSTICK_CLKSourceConfig(SYSTICK_CLKSOURCE_HCLK);
 150:Src/main.c    **** 
 151:Src/main.c    ****   /* SysTick_IRQn interrupt configuration */
 152:Src/main.c    ****   HAL_NVIC_SetPriority(SysTick_IRQn, 0, 0);
 153:Src/main.c    **** }
 154:Src/main.c    **** 
 155:Src/main.c    **** /* USER CODE BEGIN 4 */
 156:Src/main.c    **** 
 157:Src/main.c    **** /* USER CODE END 4 */
 158:Src/main.c    **** 
 159:Src/main.c    **** /**
 160:Src/main.c    ****   * @brief  This function is executed in case of error occurrence.
 161:Src/main.c    ****   * @param  None
 162:Src/main.c    ****   * @retval None
 163:Src/main.c    ****   */
 164:Src/main.c    **** void _Error_Handler(char * file, int line)
 165:Src/main.c    **** {
  27              		.loc 1 165 1 view -0
  28              		.cfi_startproc
  29              		@ Volatile: function does not return.
  30              		@ args = 0, pretend = 0, frame = 0
  31              		@ frame_needed = 0, uses_anonymous_args = 0
  32              		@ link register save eliminated.
  33              	.LVL0:
  34              	.L2:
 166:Src/main.c    ****   /* USER CODE BEGIN Error_Handler_Debug */
 167:Src/main.c    ****   /* User can add his own implementation to report the HAL error return state */
 168:Src/main.c    ****   while(1)
  35              		.loc 1 168 3 view .LVU1
 169:Src/main.c    ****   {
 170:Src/main.c    ****   }
  36              		.loc 1 170 3 view .LVU2
 168:Src/main.c    ****   {
  37              		.loc 1 168 8 view .LVU3
  38 0000 FEE7     		b	.L2
  39              		.cfi_endproc
  40              	.LFE42:
  42              		.section	.rodata.SystemClock_Config.str1.4,"aMS",%progbits,1
  43              		.align	2
  44              	.LC0:
  45 0000 5372632F 		.ascii	"Src/main.c\000"
  45      6D61696E 
  45      2E6300
  46              		.global	__aeabi_uidiv
  47              		.section	.text.SystemClock_Config,"ax",%progbits
  48              		.align	1
  49              		.global	SystemClock_Config
  50              		.syntax unified
  51              		.code	16
  52              		.thumb_func
  54              	SystemClock_Config:
  55              	.LFB41:
 114:Src/main.c    **** 
  56              		.loc 1 114 1 view -0
  57              		.cfi_startproc
ARM GAS  /var/folders/kb/jp48nf6n0vs1vb3q737nlq0w0000gn/T//cczeehKx.s 			page 5


  58              		@ args = 0, pretend = 0, frame = 72
  59              		@ frame_needed = 0, uses_anonymous_args = 0
  60 0000 00B5     		push	{lr}
  61              	.LCFI0:
  62              		.cfi_def_cfa_offset 4
  63              		.cfi_offset 14, -4
  64 0002 93B0     		sub	sp, sp, #76
  65              	.LCFI1:
  66              		.cfi_def_cfa_offset 80
 116:Src/main.c    ****   RCC_ClkInitTypeDef RCC_ClkInitStruct;
  67              		.loc 1 116 3 view .LVU5
 117:Src/main.c    **** 
  68              		.loc 1 117 3 view .LVU6
 121:Src/main.c    ****   RCC_OscInitStruct.HSIState = RCC_HSI_ON;
  69              		.loc 1 121 3 view .LVU7
 121:Src/main.c    ****   RCC_OscInitStruct.HSIState = RCC_HSI_ON;
  70              		.loc 1 121 36 is_stmt 0 view .LVU8
  71 0004 0223     		movs	r3, #2
  72 0006 0593     		str	r3, [sp, #20]
 122:Src/main.c    ****   RCC_OscInitStruct.HSICalibrationValue = 16;
  73              		.loc 1 122 3 is_stmt 1 view .LVU9
 122:Src/main.c    ****   RCC_OscInitStruct.HSICalibrationValue = 16;
  74              		.loc 1 122 30 is_stmt 0 view .LVU10
  75 0008 013B     		subs	r3, r3, #1
  76 000a 0893     		str	r3, [sp, #32]
 123:Src/main.c    ****   RCC_OscInitStruct.PLL.PLLState = RCC_PLL_NONE;
  77              		.loc 1 123 3 is_stmt 1 view .LVU11
 123:Src/main.c    ****   RCC_OscInitStruct.PLL.PLLState = RCC_PLL_NONE;
  78              		.loc 1 123 41 is_stmt 0 view .LVU12
  79 000c 0F33     		adds	r3, r3, #15
  80 000e 0993     		str	r3, [sp, #36]
 124:Src/main.c    ****   if (HAL_RCC_OscConfig(&RCC_OscInitStruct) != HAL_OK)
  81              		.loc 1 124 3 is_stmt 1 view .LVU13
 124:Src/main.c    ****   if (HAL_RCC_OscConfig(&RCC_OscInitStruct) != HAL_OK)
  82              		.loc 1 124 34 is_stmt 0 view .LVU14
  83 0010 0023     		movs	r3, #0
  84 0012 0E93     		str	r3, [sp, #56]
 125:Src/main.c    ****   {
  85              		.loc 1 125 3 is_stmt 1 view .LVU15
 125:Src/main.c    ****   {
  86              		.loc 1 125 7 is_stmt 0 view .LVU16
  87 0014 05A8     		add	r0, sp, #20
  88 0016 FFF7FEFF 		bl	HAL_RCC_OscConfig
  89              	.LVL1:
 125:Src/main.c    ****   {
  90              		.loc 1 125 6 discriminator 1 view .LVU17
  91 001a 0028     		cmp	r0, #0
  92 001c 1ED1     		bne	.L6
 132:Src/main.c    ****                               |RCC_CLOCKTYPE_PCLK1;
  93              		.loc 1 132 3 is_stmt 1 view .LVU18
 132:Src/main.c    ****                               |RCC_CLOCKTYPE_PCLK1;
  94              		.loc 1 132 31 is_stmt 0 view .LVU19
  95 001e 0723     		movs	r3, #7
  96 0020 0193     		str	r3, [sp, #4]
 134:Src/main.c    ****   RCC_ClkInitStruct.AHBCLKDivider = RCC_SYSCLK_DIV1;
  97              		.loc 1 134 3 is_stmt 1 view .LVU20
 134:Src/main.c    ****   RCC_ClkInitStruct.AHBCLKDivider = RCC_SYSCLK_DIV1;
ARM GAS  /var/folders/kb/jp48nf6n0vs1vb3q737nlq0w0000gn/T//cczeehKx.s 			page 6


  98              		.loc 1 134 34 is_stmt 0 view .LVU21
  99 0022 0023     		movs	r3, #0
 100 0024 0293     		str	r3, [sp, #8]
 135:Src/main.c    ****   RCC_ClkInitStruct.APB1CLKDivider = RCC_HCLK_DIV1;
 101              		.loc 1 135 3 is_stmt 1 view .LVU22
 135:Src/main.c    ****   RCC_ClkInitStruct.APB1CLKDivider = RCC_HCLK_DIV1;
 102              		.loc 1 135 35 is_stmt 0 view .LVU23
 103 0026 0393     		str	r3, [sp, #12]
 136:Src/main.c    **** 
 104              		.loc 1 136 3 is_stmt 1 view .LVU24
 136:Src/main.c    **** 
 105              		.loc 1 136 36 is_stmt 0 view .LVU25
 106 0028 0493     		str	r3, [sp, #16]
 138:Src/main.c    ****   {
 107              		.loc 1 138 3 is_stmt 1 view .LVU26
 138:Src/main.c    ****   {
 108              		.loc 1 138 7 is_stmt 0 view .LVU27
 109 002a 0021     		movs	r1, #0
 110 002c 01A8     		add	r0, sp, #4
 111 002e FFF7FEFF 		bl	HAL_RCC_ClockConfig
 112              	.LVL2:
 138:Src/main.c    ****   {
 113              		.loc 1 138 6 discriminator 1 view .LVU28
 114 0032 0028     		cmp	r0, #0
 115 0034 16D1     		bne	.L7
 145:Src/main.c    **** 
 116              		.loc 1 145 3 is_stmt 1 view .LVU29
 145:Src/main.c    **** 
 117              		.loc 1 145 22 is_stmt 0 view .LVU30
 118 0036 FFF7FEFF 		bl	HAL_RCC_GetHCLKFreq
 119              	.LVL3:
 145:Src/main.c    **** 
 120              		.loc 1 145 3 discriminator 1 view .LVU31
 121 003a FA21     		movs	r1, #250
 122 003c 8900     		lsls	r1, r1, #2
 123 003e FFF7FEFF 		bl	__aeabi_uidiv
 124              	.LVL4:
 125 0042 FFF7FEFF 		bl	HAL_SYSTICK_Config
 126              	.LVL5:
 149:Src/main.c    **** 
 127              		.loc 1 149 3 is_stmt 1 view .LVU32
 128 0046 0420     		movs	r0, #4
 129 0048 FFF7FEFF 		bl	HAL_SYSTICK_CLKSourceConfig
 130              	.LVL6:
 152:Src/main.c    **** }
 131              		.loc 1 152 3 view .LVU33
 132 004c 0120     		movs	r0, #1
 133 004e 0022     		movs	r2, #0
 134 0050 0021     		movs	r1, #0
 135 0052 4042     		rsbs	r0, r0, #0
 136 0054 FFF7FEFF 		bl	HAL_NVIC_SetPriority
 137              	.LVL7:
 153:Src/main.c    **** 
 138              		.loc 1 153 1 is_stmt 0 view .LVU34
 139 0058 13B0     		add	sp, sp, #76
 140              		@ sp needed
 141 005a 00BD     		pop	{pc}
ARM GAS  /var/folders/kb/jp48nf6n0vs1vb3q737nlq0w0000gn/T//cczeehKx.s 			page 7


 142              	.L6:
 127:Src/main.c    ****   }
 143              		.loc 1 127 5 is_stmt 1 view .LVU35
 144 005c 0348     		ldr	r0, .L8
 145 005e 7F21     		movs	r1, #127
 146 0060 FFF7FEFF 		bl	_Error_Handler
 147              	.LVL8:
 148              	.L7:
 140:Src/main.c    ****   }
 149              		.loc 1 140 5 view .LVU36
 150 0064 0148     		ldr	r0, .L8
 151 0066 8C21     		movs	r1, #140
 152 0068 FFF7FEFF 		bl	_Error_Handler
 153              	.LVL9:
 154              	.L9:
 155              		.align	2
 156              	.L8:
 157 006c 00000000 		.word	.LC0
 158              		.cfi_endproc
 159              	.LFE41:
 161              		.section	.text.main,"ax",%progbits
 162              		.align	1
 163              		.global	main
 164              		.syntax unified
 165              		.code	16
 166              		.thumb_func
 168              	main:
 169              	.LFB40:
  73:Src/main.c    ****   SystemClock_Config();
 170              		.loc 1 73 1 view -0
 171              		.cfi_startproc
 172              		@ Volatile: function does not return.
 173              		@ args = 0, pretend = 0, frame = 0
 174              		@ frame_needed = 0, uses_anonymous_args = 0
 175 0000 10B5     		push	{r4, lr}
 176              	.LCFI2:
 177              		.cfi_def_cfa_offset 8
 178              		.cfi_offset 4, -8
 179              		.cfi_offset 14, -4
  74:Src/main.c    **** 
 180              		.loc 1 74 3 view .LVU38
 181 0002 FFF7FEFF 		bl	SystemClock_Config
 182              	.LVL10:
  76:Src/main.c    **** 
 183              		.loc 1 76 3 view .LVU39
  78:Src/main.c    ****   RCC->AHBENR |= RCC_AHBENR_GPIOCEN;
 184              		.loc 1 78 3 view .LVU40
  78:Src/main.c    ****   RCC->AHBENR |= RCC_AHBENR_GPIOCEN;
 185              		.loc 1 78 6 is_stmt 0 view .LVU41
 186 0006 2F4B     		ldr	r3, .L12
 187 0008 5969     		ldr	r1, [r3, #20]
  78:Src/main.c    ****   RCC->AHBENR |= RCC_AHBENR_GPIOCEN;
 188              		.loc 1 78 15 view .LVU42
 189 000a 8022     		movs	r2, #128
 190 000c 9202     		lsls	r2, r2, #10
 191 000e 0A43     		orrs	r2, r1
 192 0010 5A61     		str	r2, [r3, #20]
ARM GAS  /var/folders/kb/jp48nf6n0vs1vb3q737nlq0w0000gn/T//cczeehKx.s 			page 8


  79:Src/main.c    **** 
 193              		.loc 1 79 3 is_stmt 1 view .LVU43
  79:Src/main.c    **** 
 194              		.loc 1 79 6 is_stmt 0 view .LVU44
 195 0012 5969     		ldr	r1, [r3, #20]
  79:Src/main.c    **** 
 196              		.loc 1 79 15 view .LVU45
 197 0014 8022     		movs	r2, #128
 198 0016 1203     		lsls	r2, r2, #12
 199 0018 0A43     		orrs	r2, r1
 200 001a 5A61     		str	r2, [r3, #20]
  81:Src/main.c    **** 	GPIOC -> MODER |= (1 << 14); // PIN 7 (BLLUE)
 201              		.loc 1 81 3 is_stmt 1 view .LVU46
  81:Src/main.c    **** 	GPIOC -> MODER |= (1 << 14); // PIN 7 (BLLUE)
 202              		.loc 1 81 9 is_stmt 0 view .LVU47
 203 001c 2A48     		ldr	r0, .L12+4
 204 001e 0268     		ldr	r2, [r0]
  81:Src/main.c    **** 	GPIOC -> MODER |= (1 << 14); // PIN 7 (BLLUE)
 205              		.loc 1 81 18 view .LVU48
 206 0020 8023     		movs	r3, #128
 207 0022 5B01     		lsls	r3, r3, #5
 208 0024 1343     		orrs	r3, r2
 209 0026 0360     		str	r3, [r0]
  82:Src/main.c    **** 	GPIOC -> MODER |= (1 << 16); // PIN 8 (ORANGE)
 210              		.loc 1 82 2 is_stmt 1 view .LVU49
  82:Src/main.c    **** 	GPIOC -> MODER |= (1 << 16); // PIN 8 (ORANGE)
 211              		.loc 1 82 8 is_stmt 0 view .LVU50
 212 0028 0268     		ldr	r2, [r0]
  82:Src/main.c    **** 	GPIOC -> MODER |= (1 << 16); // PIN 8 (ORANGE)
 213              		.loc 1 82 17 view .LVU51
 214 002a 8023     		movs	r3, #128
 215 002c DB01     		lsls	r3, r3, #7
 216 002e 1343     		orrs	r3, r2
 217 0030 0360     		str	r3, [r0]
  83:Src/main.c    **** 	GPIOC -> MODER |= (1 << 18); // PIN 9 (GREEN)
 218              		.loc 1 83 2 is_stmt 1 view .LVU52
  83:Src/main.c    **** 	GPIOC -> MODER |= (1 << 18); // PIN 9 (GREEN)
 219              		.loc 1 83 8 is_stmt 0 view .LVU53
 220 0032 0268     		ldr	r2, [r0]
  83:Src/main.c    **** 	GPIOC -> MODER |= (1 << 18); // PIN 9 (GREEN)
 221              		.loc 1 83 17 view .LVU54
 222 0034 8023     		movs	r3, #128
 223 0036 5B02     		lsls	r3, r3, #9
 224 0038 1343     		orrs	r3, r2
 225 003a 0360     		str	r3, [r0]
  84:Src/main.c    **** 
 226              		.loc 1 84 2 is_stmt 1 view .LVU55
  84:Src/main.c    **** 
 227              		.loc 1 84 8 is_stmt 0 view .LVU56
 228 003c 0268     		ldr	r2, [r0]
  84:Src/main.c    **** 
 229              		.loc 1 84 17 view .LVU57
 230 003e 8023     		movs	r3, #128
 231 0040 DB02     		lsls	r3, r3, #11
 232 0042 1343     		orrs	r3, r2
 233 0044 0360     		str	r3, [r0]
  86:Src/main.c    **** 	GPIOC -> OTYPER &= ~(1 << 7);
ARM GAS  /var/folders/kb/jp48nf6n0vs1vb3q737nlq0w0000gn/T//cczeehKx.s 			page 9


 234              		.loc 1 86 3 is_stmt 1 view .LVU58
  86:Src/main.c    **** 	GPIOC -> OTYPER &= ~(1 << 7);
 235              		.loc 1 86 9 is_stmt 0 view .LVU59
 236 0046 4368     		ldr	r3, [r0, #4]
  86:Src/main.c    **** 	GPIOC -> OTYPER &= ~(1 << 7);
 237              		.loc 1 86 19 view .LVU60
 238 0048 4022     		movs	r2, #64
 239 004a 9343     		bics	r3, r2
 240 004c 4360     		str	r3, [r0, #4]
  87:Src/main.c    **** 	GPIOC -> OTYPER &= ~(1 << 8);
 241              		.loc 1 87 2 is_stmt 1 view .LVU61
  87:Src/main.c    **** 	GPIOC -> OTYPER &= ~(1 << 8);
 242              		.loc 1 87 8 is_stmt 0 view .LVU62
 243 004e 4368     		ldr	r3, [r0, #4]
  87:Src/main.c    **** 	GPIOC -> OTYPER &= ~(1 << 8);
 244              		.loc 1 87 18 view .LVU63
 245 0050 4032     		adds	r2, r2, #64
 246 0052 9343     		bics	r3, r2
 247 0054 4360     		str	r3, [r0, #4]
  88:Src/main.c    **** 	GPIOC -> OTYPER &= ~(1 << 9);
 248              		.loc 1 88 2 is_stmt 1 view .LVU64
  88:Src/main.c    **** 	GPIOC -> OTYPER &= ~(1 << 9);
 249              		.loc 1 88 8 is_stmt 0 view .LVU65
 250 0056 4368     		ldr	r3, [r0, #4]
  88:Src/main.c    **** 	GPIOC -> OTYPER &= ~(1 << 9);
 251              		.loc 1 88 18 view .LVU66
 252 0058 1C4A     		ldr	r2, .L12+8
 253 005a 1340     		ands	r3, r2
 254 005c 4360     		str	r3, [r0, #4]
  89:Src/main.c    **** 
 255              		.loc 1 89 2 is_stmt 1 view .LVU67
  89:Src/main.c    **** 
 256              		.loc 1 89 8 is_stmt 0 view .LVU68
 257 005e 4368     		ldr	r3, [r0, #4]
  89:Src/main.c    **** 
 258              		.loc 1 89 18 view .LVU69
 259 0060 1B4A     		ldr	r2, .L12+12
 260 0062 1340     		ands	r3, r2
 261 0064 4360     		str	r3, [r0, #4]
  91:Src/main.c    **** 	GPIOC -> OSPEEDR &= ~(1 << 14);
 262              		.loc 1 91 2 is_stmt 1 view .LVU70
  91:Src/main.c    **** 	GPIOC -> OSPEEDR &= ~(1 << 14);
 263              		.loc 1 91 8 is_stmt 0 view .LVU71
 264 0066 8368     		ldr	r3, [r0, #8]
  91:Src/main.c    **** 	GPIOC -> OSPEEDR &= ~(1 << 14);
 265              		.loc 1 91 19 view .LVU72
 266 0068 1A4A     		ldr	r2, .L12+16
 267 006a 1340     		ands	r3, r2
 268 006c 8360     		str	r3, [r0, #8]
  92:Src/main.c    **** 	GPIOC -> OSPEEDR &= ~(1 << 16);
 269              		.loc 1 92 2 is_stmt 1 view .LVU73
  92:Src/main.c    **** 	GPIOC -> OSPEEDR &= ~(1 << 16);
 270              		.loc 1 92 8 is_stmt 0 view .LVU74
 271 006e 8368     		ldr	r3, [r0, #8]
  92:Src/main.c    **** 	GPIOC -> OSPEEDR &= ~(1 << 16);
 272              		.loc 1 92 19 view .LVU75
 273 0070 194A     		ldr	r2, .L12+20
ARM GAS  /var/folders/kb/jp48nf6n0vs1vb3q737nlq0w0000gn/T//cczeehKx.s 			page 10


 274 0072 1340     		ands	r3, r2
 275 0074 8360     		str	r3, [r0, #8]
  93:Src/main.c    **** 	GPIOC -> OSPEEDR &= ~(1 << 18);
 276              		.loc 1 93 2 is_stmt 1 view .LVU76
  93:Src/main.c    **** 	GPIOC -> OSPEEDR &= ~(1 << 18);
 277              		.loc 1 93 8 is_stmt 0 view .LVU77
 278 0076 8368     		ldr	r3, [r0, #8]
  93:Src/main.c    **** 	GPIOC -> OSPEEDR &= ~(1 << 18);
 279              		.loc 1 93 19 view .LVU78
 280 0078 184A     		ldr	r2, .L12+24
 281 007a 1340     		ands	r3, r2
 282 007c 8360     		str	r3, [r0, #8]
  94:Src/main.c    **** 
 283              		.loc 1 94 2 is_stmt 1 view .LVU79
  94:Src/main.c    **** 
 284              		.loc 1 94 8 is_stmt 0 view .LVU80
 285 007e 8368     		ldr	r3, [r0, #8]
  94:Src/main.c    **** 
 286              		.loc 1 94 19 view .LVU81
 287 0080 174A     		ldr	r2, .L12+28
 288 0082 1340     		ands	r3, r2
 289 0084 8360     		str	r3, [r0, #8]
  96:Src/main.c    **** 	GPIOC -> PUPDR &= ~((1 << 14)|(1 << 15));
 290              		.loc 1 96 2 is_stmt 1 view .LVU82
  96:Src/main.c    **** 	GPIOC -> PUPDR &= ~((1 << 14)|(1 << 15));
 291              		.loc 1 96 8 is_stmt 0 view .LVU83
 292 0086 C368     		ldr	r3, [r0, #12]
  96:Src/main.c    **** 	GPIOC -> PUPDR &= ~((1 << 14)|(1 << 15));
 293              		.loc 1 96 17 view .LVU84
 294 0088 164A     		ldr	r2, .L12+32
 295 008a 1340     		ands	r3, r2
 296 008c C360     		str	r3, [r0, #12]
  97:Src/main.c    **** 	GPIOC -> PUPDR &= ~((1 << 16)|(1 << 17));
 297              		.loc 1 97 2 is_stmt 1 view .LVU85
  97:Src/main.c    **** 	GPIOC -> PUPDR &= ~((1 << 16)|(1 << 17));
 298              		.loc 1 97 8 is_stmt 0 view .LVU86
 299 008e C368     		ldr	r3, [r0, #12]
  97:Src/main.c    **** 	GPIOC -> PUPDR &= ~((1 << 16)|(1 << 17));
 300              		.loc 1 97 17 view .LVU87
 301 0090 154A     		ldr	r2, .L12+36
 302 0092 1340     		ands	r3, r2
 303 0094 C360     		str	r3, [r0, #12]
  98:Src/main.c    **** 	GPIOC -> PUPDR &= ~((1 << 18)|(1 << 19));
 304              		.loc 1 98 2 is_stmt 1 view .LVU88
  98:Src/main.c    **** 	GPIOC -> PUPDR &= ~((1 << 18)|(1 << 19));
 305              		.loc 1 98 8 is_stmt 0 view .LVU89
 306 0096 C368     		ldr	r3, [r0, #12]
  98:Src/main.c    **** 	GPIOC -> PUPDR &= ~((1 << 18)|(1 << 19));
 307              		.loc 1 98 17 view .LVU90
 308 0098 144A     		ldr	r2, .L12+40
 309 009a 1340     		ands	r3, r2
 310 009c C360     		str	r3, [r0, #12]
  99:Src/main.c    **** 
 311              		.loc 1 99 2 is_stmt 1 view .LVU91
  99:Src/main.c    **** 
 312              		.loc 1 99 8 is_stmt 0 view .LVU92
 313 009e C368     		ldr	r3, [r0, #12]
ARM GAS  /var/folders/kb/jp48nf6n0vs1vb3q737nlq0w0000gn/T//cczeehKx.s 			page 11


  99:Src/main.c    **** 
 314              		.loc 1 99 17 view .LVU93
 315 00a0 134A     		ldr	r2, .L12+44
 316 00a2 1340     		ands	r3, r2
 317 00a4 C360     		str	r3, [r0, #12]
 101:Src/main.c    **** 
 318              		.loc 1 101 3 is_stmt 1 view .LVU94
 319 00a6 8021     		movs	r1, #128
 320 00a8 0122     		movs	r2, #1
 321 00aa 8900     		lsls	r1, r1, #2
 322 00ac FFF7FEFF 		bl	HAL_GPIO_WritePin
 323              	.LVL11:
 324              	.L11:
 103:Src/main.c    ****     HAL_Delay(500); // Delay 500ms
 325              		.loc 1 103 3 view .LVU95
 104:Src/main.c    ****     GPIOC -> ODR ^= GPIO_ODR_6;    
 326              		.loc 1 104 5 view .LVU96
 327 00b0 FA20     		movs	r0, #250
 328 00b2 4000     		lsls	r0, r0, #1
 329 00b4 FFF7FEFF 		bl	HAL_Delay
 330              	.LVL12:
 105:Src/main.c    **** 
 331              		.loc 1 105 5 discriminator 1 view .LVU97
 105:Src/main.c    **** 
 332              		.loc 1 105 11 is_stmt 0 discriminator 1 view .LVU98
 333 00b8 034A     		ldr	r2, .L12+4
 334 00ba 5369     		ldr	r3, [r2, #20]
 105:Src/main.c    **** 
 335              		.loc 1 105 18 discriminator 1 view .LVU99
 336 00bc 4021     		movs	r1, #64
 337 00be 4B40     		eors	r3, r1
 338 00c0 5361     		str	r3, [r2, #20]
 103:Src/main.c    ****     HAL_Delay(500); // Delay 500ms
 339              		.loc 1 103 9 is_stmt 1 view .LVU100
 340 00c2 F5E7     		b	.L11
 341              	.L13:
 342              		.align	2
 343              	.L12:
 344 00c4 00100240 		.word	1073876992
 345 00c8 00080048 		.word	1207961600
 346 00cc FFFEFFFF 		.word	-257
 347 00d0 FFFDFFFF 		.word	-513
 348 00d4 FFEFFFFF 		.word	-4097
 349 00d8 FFBFFFFF 		.word	-16385
 350 00dc FFFFFEFF 		.word	-65537
 351 00e0 FFFFFBFF 		.word	-262145
 352 00e4 FFCFFFFF 		.word	-12289
 353 00e8 FF3FFFFF 		.word	-49153
 354 00ec FFFFFCFF 		.word	-196609
 355 00f0 FFFFF3FF 		.word	-786433
 356              		.cfi_endproc
 357              	.LFE40:
 359              		.text
 360              	.Letext0:
 361              		.file 2 "Drivers/CMSIS/Device/ST/STM32F0xx/Include/stm32f072xb.h"
 362              		.file 3 "/Applications/ArmGNUToolchain/13.2.Rel1/arm-none-eabi/arm-none-eabi/include/machine/_defa
 363              		.file 4 "/Applications/ArmGNUToolchain/13.2.Rel1/arm-none-eabi/arm-none-eabi/include/sys/_stdint.h
ARM GAS  /var/folders/kb/jp48nf6n0vs1vb3q737nlq0w0000gn/T//cczeehKx.s 			page 12


 364              		.file 5 "Drivers/STM32F0xx_HAL_Driver/Inc/stm32f0xx_hal_def.h"
 365              		.file 6 "Drivers/STM32F0xx_HAL_Driver/Inc/stm32f0xx_hal_rcc.h"
 366              		.file 7 "Drivers/STM32F0xx_HAL_Driver/Inc/stm32f0xx_hal_gpio.h"
 367              		.file 8 "Drivers/STM32F0xx_HAL_Driver/Inc/stm32f0xx_hal_cortex.h"
 368              		.file 9 "Drivers/STM32F0xx_HAL_Driver/Inc/stm32f0xx_hal.h"
ARM GAS  /var/folders/kb/jp48nf6n0vs1vb3q737nlq0w0000gn/T//cczeehKx.s 			page 13


DEFINED SYMBOLS
                            *ABS*:00000000 main.c
/var/folders/kb/jp48nf6n0vs1vb3q737nlq0w0000gn/T//cczeehKx.s:19     .text._Error_Handler:00000000 $t
/var/folders/kb/jp48nf6n0vs1vb3q737nlq0w0000gn/T//cczeehKx.s:25     .text._Error_Handler:00000000 _Error_Handler
/var/folders/kb/jp48nf6n0vs1vb3q737nlq0w0000gn/T//cczeehKx.s:43     .rodata.SystemClock_Config.str1.4:00000000 $d
/var/folders/kb/jp48nf6n0vs1vb3q737nlq0w0000gn/T//cczeehKx.s:48     .text.SystemClock_Config:00000000 $t
/var/folders/kb/jp48nf6n0vs1vb3q737nlq0w0000gn/T//cczeehKx.s:54     .text.SystemClock_Config:00000000 SystemClock_Config
/var/folders/kb/jp48nf6n0vs1vb3q737nlq0w0000gn/T//cczeehKx.s:157    .text.SystemClock_Config:0000006c $d
/var/folders/kb/jp48nf6n0vs1vb3q737nlq0w0000gn/T//cczeehKx.s:162    .text.main:00000000 $t
/var/folders/kb/jp48nf6n0vs1vb3q737nlq0w0000gn/T//cczeehKx.s:168    .text.main:00000000 main
/var/folders/kb/jp48nf6n0vs1vb3q737nlq0w0000gn/T//cczeehKx.s:344    .text.main:000000c4 $d

UNDEFINED SYMBOLS
__aeabi_uidiv
HAL_RCC_OscConfig
HAL_RCC_ClockConfig
HAL_RCC_GetHCLKFreq
HAL_SYSTICK_Config
HAL_SYSTICK_CLKSourceConfig
HAL_NVIC_SetPriority
HAL_GPIO_WritePin
HAL_Delay
